target datalayout = "e-m:e-p270:32:32-p271:32:32-p272:64:64-i64:64-i128:128-f80:128-n8:16:32:64-S128"
target triple = "x86_64-unknown-linux-gnu"

%"class.datalog::sparse_table::column_info" = type { i32, i32, i64, i64, i32, i32 }
%class.vector.1 = type { ptr }

; Function Attrs: mustprogress nounwind uwtable
define linkonce_odr hidden void @_ZN7datalog12sparse_table11column_infoC2Ejj(ptr noundef nonnull align 8 dereferenceable(32) %this, i32 noundef %offset, i32 noundef %length) unnamed_addr #5 comdat align 2 {
entry:
  %this.addr = alloca ptr, align 8
  %offset.addr = alloca i32, align 4
  %length.addr = alloca i32, align 4
  store ptr %this, ptr %this.addr, align 8
  store i32 %offset, ptr %offset.addr, align 4
  store i32 %length, ptr %length.addr, align 4
  %this1 = load ptr, ptr %this.addr, align 8
  %m_big_offset = getelementptr inbounds %"class.datalog::sparse_table::column_info", ptr %this1, i32 0, i32 0
  %0 = load i32, ptr %offset.addr, align 4
  %div = udiv i32 %0, 8
  store i32 %div, ptr %m_big_offset, align 8
  %m_small_offset = getelementptr inbounds %"class.datalog::sparse_table::column_info", ptr %this1, i32 0, i32 1
  %1 = load i32, ptr %offset.addr, align 4
  %rem = urem i32 %1, 8
  store i32 %rem, ptr %m_small_offset, align 4
  %m_mask = getelementptr inbounds %"class.datalog::sparse_table::column_info", ptr %this1, i32 0, i32 2
  %2 = load i32, ptr %length.addr, align 4
  %cmp = icmp eq i32 %2, 64
  br i1 %cmp, label %cond.true, label %cond.false

cond.true:                                        ; preds = %entry
  br label %cond.end

cond.false:                                       ; preds = %entry
  %3 = load i32, ptr %length.addr, align 4
  %sh_prom = zext i32 %3 to i64
  %shl = shl i64 1, %sh_prom
  %sub = sub i64 %shl, 1
  br label %cond.end

cond.end:                                         ; preds = %cond.false, %cond.true
  %cond = phi i64 [ -1, %cond.true ], [ %sub, %cond.false ]
  store i64 %cond, ptr %m_mask, align 8
  %m_write_mask = getelementptr inbounds %"class.datalog::sparse_table::column_info", ptr %this1, i32 0, i32 3
  %m_mask2 = getelementptr inbounds %"class.datalog::sparse_table::column_info", ptr %this1, i32 0, i32 2
  %4 = load i64, ptr %m_mask2, align 8
  %m_small_offset3 = getelementptr inbounds %"class.datalog::sparse_table::column_info", ptr %this1, i32 0, i32 1
  %5 = load i32, ptr %m_small_offset3, align 4
  %sh_prom4 = zext i32 %5 to i64
  %shl5 = shl i64 %4, %sh_prom4
  %not = xor i64 %shl5, -1
  store i64 %not, ptr %m_write_mask, align 8
  %m_offset = getelementptr inbounds %"class.datalog::sparse_table::column_info", ptr %this1, i32 0, i32 4
  %6 = load i32, ptr %offset.addr, align 4
  store i32 %6, ptr %m_offset, align 8
  %m_length = getelementptr inbounds %"class.datalog::sparse_table::column_info", ptr %this1, i32 0, i32 5
  %7 = load i32, ptr %length.addr, align 4
  store i32 %7, ptr %m_length, align 4
  ret void
}

; Function Attrs: mustprogress nounwind uwtable
define linkonce_odr noundef nonnull align 4 dereferenceable(4) ptr @_ZSt3minIiERKT_S2_S2_(ptr noundef nonnull align 4 dereferenceable(4) %__a, ptr noundef nonnull align 4 dereferenceable(4) %__b) #5 comdat {
entry:
  %retval = alloca ptr, align 8
  %__a.addr = alloca ptr, align 8
  %__b.addr = alloca ptr, align 8
  store ptr %__a, ptr %__a.addr, align 8
  store ptr %__b, ptr %__b.addr, align 8
  %0 = load ptr, ptr %__b.addr, align 8
  %1 = load i32, ptr %0, align 4
  %2 = load ptr, ptr %__a.addr, align 8
  %3 = load i32, ptr %2, align 4
  %cmp = icmp slt i32 %1, %3
  br i1 %cmp, label %if.then, label %if.end

if.then:                                          ; preds = %entry
  %4 = load ptr, ptr %__b.addr, align 8
  store ptr %4, ptr %retval, align 8
  br label %return

if.end:                                           ; preds = %entry
  %5 = load ptr, ptr %__a.addr, align 8
  store ptr %5, ptr %retval, align 8
  br label %return

return:                                           ; preds = %if.end, %if.then
  %6 = load ptr, ptr %retval, align 8
  ret ptr %6
}

; Function Attrs: mustprogress nounwind uwtable
define linkonce_odr hidden noundef i32 @_ZNK7datalog12sparse_table11column_info8next_ofsEv(ptr noundef nonnull align 8 dereferenceable(32) %this) #5 comdat align 2 {
entry:
  %this.addr = alloca ptr, align 8
  store ptr %this, ptr %this.addr, align 8
  %this1 = load ptr, ptr %this.addr, align 8
  %m_offset = getelementptr inbounds %"class.datalog::sparse_table::column_info", ptr %this1, i32 0, i32 4
  %0 = load i32, ptr %m_offset, align 8
  %m_length = getelementptr inbounds %"class.datalog::sparse_table::column_info", ptr %this1, i32 0, i32 5
  %1 = load i32, ptr %m_length, align 4
  %add = add i32 %0, %1
  ret i32 %add
}

; Function Attrs: mustprogress nounwind uwtable
define linkonce_odr hidden noundef nonnull align 8 dereferenceable(32) ptr @_ZN6vectorIN7datalog12sparse_table11column_infoELb0EjEixEj(ptr noundef nonnull align 8 dereferenceable(8) %this, i32 noundef %idx) #5 comdat align 2 {
entry:
  %this.addr = alloca ptr, align 8
  %idx.addr = alloca i32, align 4
  store ptr %this, ptr %this.addr, align 8
  store i32 %idx, ptr %idx.addr, align 4
  %this1 = load ptr, ptr %this.addr, align 8
  %m_data = getelementptr inbounds %class.vector.1, ptr %this1, i32 0, i32 0
  %0 = load ptr, ptr %m_data, align 8
  %1 = load i32, ptr %idx.addr, align 4
  %idxprom = zext i32 %1 to i64
  %arrayidx = getelementptr inbounds %"class.datalog::sparse_table::column_info", ptr %0, i64 %idxprom
  ret ptr %arrayidx
}

; Function Attrs: mustprogress uwtable
define hidden void @_ZN7datalog12sparse_table13column_layout21make_byte_aligned_endEj(ptr noundef nonnull align 8 dereferenceable(20) %this, i32 noundef %col_index0) #4 align 2 {
entry:
  %this.addr = alloca ptr, align 8
  %col_index0.addr = alloca i32, align 4
  %ofs = alloca i32, align 4
  %ofs_bit_part = alloca i32, align 4
  %rounded_ofs = alloca i32, align 4
  %diff = alloca i32, align 4
  %col_idx = alloca i32, align 4
  %ci = alloca ptr, align 8
  %new_length = alloca i32, align 4
  %swallowed = alloca i32, align 4
  %ref.tmp = alloca i32, align 4
  %new_ofs = alloca i32, align 4
  %ref.tmp17 = alloca %"class.datalog::sparse_table::column_info", align 8
  store ptr %this, ptr %this.addr, align 8
  store i32 %col_index0, ptr %col_index0.addr, align 4
  %this1 = load ptr, ptr %this.addr, align 8
  %0 = load i32, ptr %col_index0.addr, align 4
  %call = call noundef nonnull align 8 dereferenceable(32) ptr @_ZN6vectorIN7datalog12sparse_table11column_infoELb0EjEixEj(ptr noundef nonnull align 8 dereferenceable(8) %this1, i32 noundef %0)
  %call2 = call noundef i32 @_ZNK7datalog12sparse_table11column_info8next_ofsEv(ptr noundef nonnull align 8 dereferenceable(32) %call)
  store i32 %call2, ptr %ofs, align 4
  %1 = load i32, ptr %ofs, align 4
  %rem = urem i32 %1, 8
  store i32 %rem, ptr %ofs_bit_part, align 4
  %2 = load i32, ptr %ofs_bit_part, align 4
  %cmp = icmp eq i32 %2, 0
  br i1 %cmp, label %cond.true, label %cond.false

cond.true:                                        ; preds = %entry
  %3 = load i32, ptr %ofs, align 4
  br label %cond.end

cond.false:                                       ; preds = %entry
  %4 = load i32, ptr %ofs, align 4
  %add = add i32 %4, 8
  %5 = load i32, ptr %ofs_bit_part, align 4
  %sub = sub i32 %add, %5
  br label %cond.end

cond.end:                                         ; preds = %cond.false, %cond.true
  %cond = phi i32 [ %3, %cond.true ], [ %sub, %cond.false ]
  store i32 %cond, ptr %rounded_ofs, align 4
  %6 = load i32, ptr %rounded_ofs, align 4
  %7 = load i32, ptr %ofs, align 4
  %cmp3 = icmp ne i32 %6, %7
  br i1 %cmp3, label %if.then, label %if.end18

if.then:                                          ; preds = %cond.end
  %8 = load i32, ptr %rounded_ofs, align 4
  %9 = load i32, ptr %ofs, align 4
  %sub4 = sub i32 %8, %9
  store i32 %sub4, ptr %diff, align 4
  %10 = load i32, ptr %col_index0.addr, align 4
  %add5 = add i32 %10, 1
  store i32 %add5, ptr %col_idx, align 4
  br label %while.cond

while.cond:                                       ; preds = %if.end, %if.then
  %11 = load i32, ptr %diff, align 4
  %cmp6 = icmp ne i32 %11, 0
  br i1 %cmp6, label %while.body, label %while.end

while.body:                                       ; preds = %while.cond
  %12 = load i32, ptr %col_idx, align 4
  %dec = add i32 %12, -1
  store i32 %dec, ptr %col_idx, align 4
  %13 = load i32, ptr %col_idx, align 4
  %call7 = call noundef nonnull align 8 dereferenceable(32) ptr @_ZN6vectorIN7datalog12sparse_table11column_infoELb0EjEixEj(ptr noundef nonnull align 8 dereferenceable(8) %this1, i32 noundef %13)
  store ptr %call7, ptr %ci, align 8
  %14 = load ptr, ptr %ci, align 8
  %m_length = getelementptr inbounds %"class.datalog::sparse_table::column_info", ptr %14, i32 0, i32 5
  %15 = load i32, ptr %m_length, align 4
  store i32 %15, ptr %new_length, align 4
  %16 = load ptr, ptr %ci, align 8
  %m_length8 = getelementptr inbounds %"class.datalog::sparse_table::column_info", ptr %16, i32 0, i32 5
  %17 = load i32, ptr %m_length8, align 4
  %cmp9 = icmp ult i32 %17, 64
  br i1 %cmp9, label %if.then10, label %if.end

if.then10:                                        ; preds = %while.body
  %18 = load ptr, ptr %ci, align 8
  %m_length11 = getelementptr inbounds %"class.datalog::sparse_table::column_info", ptr %18, i32 0, i32 5
  %19 = load i32, ptr %m_length11, align 4
  %sub12 = sub nsw i32 64, %19
  store i32 %sub12, ptr %ref.tmp, align 4
  %call13 = call noundef nonnull align 4 dereferenceable(4) ptr @_ZSt3minIiERKT_S2_S2_(ptr noundef nonnull align 4 dereferenceable(4) %ref.tmp, ptr noundef nonnull align 4 dereferenceable(4) %diff)
  %20 = load i32, ptr %call13, align 4
  store i32 %20, ptr %swallowed, align 4
  %21 = load i32, ptr %swallowed, align 4
  %22 = load i32, ptr %diff, align 4
  %sub14 = sub i32 %22, %21
  store i32 %sub14, ptr %diff, align 4
  %23 = load i32, ptr %swallowed, align 4
  %24 = load i32, ptr %new_length, align 4
  %add15 = add i32 %24, %23
  store i32 %add15, ptr %new_length, align 4
  br label %if.end

if.end:                                           ; preds = %if.then10, %while.body
  %25 = load ptr, ptr %ci, align 8
  %m_offset = getelementptr inbounds %"class.datalog::sparse_table::column_info", ptr %25, i32 0, i32 4
  %26 = load i32, ptr %m_offset, align 8
  %27 = load i32, ptr %diff, align 4
  %add16 = add i32 %26, %27
  store i32 %add16, ptr %new_ofs, align 4
  %28 = load i32, ptr %new_ofs, align 4
  %29 = load i32, ptr %new_length, align 4
  call void @_ZN7datalog12sparse_table11column_infoC2Ejj(ptr noundef nonnull align 8 dereferenceable(32) %ref.tmp17, i32 noundef %28, i32 noundef %29)
  %30 = load ptr, ptr %ci, align 8
  call void @llvm.memcpy.p0.p0.i64(ptr align 8 %30, ptr align 8 %ref.tmp17, i64 32, i1 false)
  br label %while.cond, !llvm.loop !8

while.end:                                        ; preds = %while.cond
  br label %if.end18

if.end18:                                         ; preds = %while.end, %cond.end
  ret void
}