; Function Attrs: mustprogress nofree norecurse nosync nounwind memory(readwrite, inaccessiblemem: none) uwtable
define hidden void @_ZN7datalog12sparse_table13column_layout21make_byte_aligned_endEj(ptr nocapture noundef nonnull readonly align 8 dereferenceable(20) %this, i32 noundef %col_index0) local_unnamed_addr #7 align 2 {
entry:
  %0 = load ptr, ptr %this, align 8
  %idxprom.i = zext i32 %col_index0 to i64
  %arrayidx.i = getelementptr inbounds %"class.datalog::sparse_table::column_info", ptr %0, i64 %idxprom.i
  %m_offset.i = getelementptr inbounds i8, ptr %arrayidx.i, i64 24
  %1 = load i32, ptr %m_offset.i, align 8
  %m_length.i = getelementptr inbounds i8, ptr %arrayidx.i, i64 28
  %2 = load i32, ptr %m_length.i, align 4
  %add.i = add i32 %2, %1
  %add.i.biased = add i32 %add.i, 7
  %cond = and i32 %add.i.biased, -8
  %cmp3.not = icmp eq i32 %cond, %add.i
  br i1 %cmp3.not, label %if.end18, label %if.then

if.then:                                          ; preds = %entry
  %sub4 = sub i32 %cond, %add.i
  %cmp6.not25 = icmp eq i32 %sub4, 0
  br i1 %cmp6.not25, label %if.end18, label %while.body.preheader

while.body.preheader:                             ; preds = %if.then
  %add5 = add i32 %col_index0, 1
  br label %while.body

while.body:                                       ; preds = %while.body.preheader, %if.end
  %col_idx.027 = phi i32 [ %dec, %if.end ], [ %add5, %while.body.preheader ]
  %diff.026 = phi i32 [ %diff.1, %if.end ], [ %sub4, %while.body.preheader ]
  %dec = add i32 %col_idx.027, -1
  %3 = load ptr, ptr %this, align 8
  %idxprom.i15 = zext i32 %dec to i64
  %arrayidx.i16 = getelementptr inbounds %"class.datalog::sparse_table::column_info", ptr %3, i64 %idxprom.i15
  %m_length = getelementptr inbounds i8, ptr %arrayidx.i16, i64 28
  %4 = load i32, ptr %m_length, align 4
  %cmp9 = icmp ult i32 %4, 64
  br i1 %cmp9, label %if.then10, label %if.end

if.then10:                                        ; preds = %while.body
  %sub12 = sub nuw nsw i32 64, %4
  %.sroa.speculated = tail call i32 @llvm.smin.i32(i32 %diff.026, i32 %sub12)
  %sub14 = sub i32 %diff.026, %.sroa.speculated
  %add15 = add nsw i32 %.sroa.speculated, %4
  br label %if.end

if.end:                                           ; preds = %if.then10, %while.body
  %diff.1 = phi i32 [ %sub14, %if.then10 ], [ %diff.026, %while.body ]
  %new_length.0 = phi i32 [ %add15, %if.then10 ], [ %4, %while.body ]
  %m_offset = getelementptr inbounds i8, ptr %arrayidx.i16, i64 24
  %5 = load i32, ptr %m_offset, align 8
  %add16 = add i32 %5, %diff.1
  %div5.i = lshr i32 %add16, 3
  %rem.i = and i32 %add16, 7
  %cmp.i17 = icmp eq i32 %new_length.0, 64
  %sh_prom.i = zext nneg i32 %new_length.0 to i64
  %notmask.i = shl nsw i64 -1, %sh_prom.i
  %sub.i = xor i64 %notmask.i, -1
  %cond.i = select i1 %cmp.i17, i64 -1, i64 %sub.i
  %sh_prom4.i = zext nneg i32 %rem.i to i64
  %shl5.i = shl i64 %cond.i, %sh_prom4.i
  %not.i = xor i64 %shl5.i, -1
  store i32 %div5.i, ptr %arrayidx.i16, align 8
  %ref.tmp17.sroa.2.0.arrayidx.i16.sroa_idx = getelementptr inbounds i8, ptr %arrayidx.i16, i64 4
  store i32 %rem.i, ptr %ref.tmp17.sroa.2.0.arrayidx.i16.sroa_idx, align 4
  %ref.tmp17.sroa.3.0.arrayidx.i16.sroa_idx = getelementptr inbounds i8, ptr %arrayidx.i16, i64 8
  store i64 %cond.i, ptr %ref.tmp17.sroa.3.0.arrayidx.i16.sroa_idx, align 8
  %ref.tmp17.sroa.4.0.arrayidx.i16.sroa_idx = getelementptr inbounds i8, ptr %arrayidx.i16, i64 16
  store i64 %not.i, ptr %ref.tmp17.sroa.4.0.arrayidx.i16.sroa_idx, align 8
  store i32 %add16, ptr %m_offset, align 8
  store i32 %new_length.0, ptr %m_length, align 4
  %cmp6.not = icmp eq i32 %diff.1, 0
  br i1 %cmp6.not, label %if.end18, label %while.body, !llvm.loop !9

if.end18:                                         ; preds = %if.end, %if.then, %entry
  ret void
}